target datalayout = "e-m:e-p270:32:32-p271:32:32-p272:64:64-i64:64-i128:128-f80:128-n8:16:32:64-S128"
target triple = "x86_64-pc-linux-gnu"

; Function Attrs: mustprogress nounwind uwtable
define hidden noundef i32 @_ZN4UTF814unicode_lengthEPKcRbS2_(ptr noundef %0, ptr noundef nonnull align 1 dereferenceable(1) %1, ptr noundef nonnull align 1 dereferenceable(1) %2) #1 align 2 {
  %4 = alloca ptr, align 8
  %5 = alloca ptr, align 8
  %6 = alloca ptr, align 8
  %7 = alloca i32, align 4
  %8 = alloca i8, align 1
  %9 = alloca ptr, align 8
  %10 = alloca i8, align 1
  store ptr %0, ptr %4, align 8
  store ptr %1, ptr %5, align 8
  store ptr %2, ptr %6, align 8
  store i32 0, ptr %7, align 4
  %11 = load ptr, ptr %6, align 8
  store i8 0, ptr %11, align 1
  %12 = load ptr, ptr %5, align 8
  store i8 1, ptr %12, align 1
  store i8 0, ptr %8, align 1
  %13 = load ptr, ptr %4, align 8
  store ptr %13, ptr %9, align 8
  br label %14

14:                                               ; preds = %38, %3
  %15 = load ptr, ptr %9, align 8
  %16 = load i8, ptr %15, align 1
  %17 = icmp ne i8 %16, 0
  br i1 %17, label %18, label %41

18:                                               ; preds = %14
  %19 = load ptr, ptr %9, align 8
  %20 = load i8, ptr %19, align 1
  store i8 %20, ptr %10, align 1
  %21 = load i8, ptr %10, align 1
  %22 = zext i8 %21 to i32
  %23 = and i32 %22, 192
  %24 = icmp eq i32 %23, 128
  br i1 %24, label %25, label %33

25:                                               ; preds = %18
  %26 = load ptr, ptr %6, align 8
  store i8 1, ptr %26, align 1
  %27 = load i8, ptr %8, align 1
  %28 = zext i8 %27 to i32
  %29 = icmp sgt i32 %28, 195
  br i1 %29, label %30, label %32

30:                                               ; preds = %25
  %31 = load ptr, ptr %5, align 8
  store i8 0, ptr %31, align 1
  br label %32

32:                                               ; preds = %30, %25
  br label %36

33:                                               ; preds = %18
  %34 = load i32, ptr %7, align 4
  %35 = add nsw i32 %34, 1
  store i32 %35, ptr %7, align 4
  br label %36

36:                                               ; preds = %33, %32
  %37 = load i8, ptr %10, align 1
  store i8 %37, ptr %8, align 1
  br label %38

38:                                               ; preds = %36
  %39 = load ptr, ptr %9, align 8
  %40 = getelementptr inbounds i8, ptr %39, i32 1
  store ptr %40, ptr %9, align 8
  br label %14, !llvm.loop !8

41:                                               ; preds = %14
  %42 = load i32, ptr %7, align 4
  ret i32 %42
}