; Function Attrs: mustprogress nofree norecurse nosync nounwind memory(read, argmem: readwrite, inaccessiblemem: none) uwtable
define hidden noundef i32 @_ZN4UTF814unicode_lengthEPKcRbS2_(ptr nocapture noundef readonly %0, ptr nocapture noundef nonnull writeonly align 1 dereferenceable(1) %1, ptr nocapture noundef nonnull writeonly align 1 dereferenceable(1) %2) local_unnamed_addr #4 align 2 {
  store i8 0, ptr %2, align 1
  store i8 1, ptr %1, align 1
  %4 = load i8, ptr %0, align 1
  %.not15 = icmp eq i8 %4, 0
  br i1 %.not15, label %._crit_edge, label %.lr.ph

.lr.ph:                                           ; preds = %3, %13
  %5 = phi i8 [ %15, %13 ], [ %4, %3 ]
  %.018 = phi i32 [ %.1, %13 ], [ 0, %3 ]
  %.01217 = phi ptr [ %14, %13 ], [ %0, %3 ]
  %.01316 = phi i8 [ %5, %13 ], [ 0, %3 ]
  %6 = and i8 %5, -64
  %7 = icmp eq i8 %6, -128
  br i1 %7, label %8, label %11

8:                                                ; preds = %.lr.ph
  store i8 1, ptr %2, align 1
  %9 = icmp ugt i8 %.01316, -61
  br i1 %9, label %10, label %13

10:                                               ; preds = %8
  store i8 0, ptr %1, align 1
  br label %13

11:                                               ; preds = %.lr.ph
  %12 = add nsw i32 %.018, 1
  br label %13

13:                                               ; preds = %8, %10, %11
  %.1 = phi i32 [ %.018, %10 ], [ %.018, %8 ], [ %12, %11 ]
  %14 = getelementptr inbounds i8, ptr %.01217, i64 1
  %15 = load i8, ptr %14, align 1
  %.not = icmp eq i8 %15, 0
  br i1 %.not, label %._crit_edge, label %.lr.ph, !llvm.loop !8

._crit_edge:                                      ; preds = %13, %3
  %.0.lcssa = phi i32 [ 0, %3 ], [ %.1, %13 ]
  ret i32 %.0.lcssa
}